; Function Attrs: mustprogress uwtable
define void @_ZN6casadi13CodeGenerator10file_closeERSt14basic_ofstreamIcSt11char_traitsIcEEb(ptr noundef nonnull align 8 dereferenceable(248) %0, i1 noundef zeroext %1) local_unnamed_addr #3 align 2 {
  br i1 %1, label %7, label %3

3:                                                ; preds = %2
  %4 = tail call noundef nonnull align 8 dereferenceable(8) ptr @_ZStlsISt11char_traitsIcEERSt13basic_ostreamIcT_ES5_PKc(ptr noundef nonnull align 8 dereferenceable(8) %0, ptr noundef nonnull @.str.156)
  %5 = tail call noundef nonnull align 8 dereferenceable(8) ptr @_ZStlsISt11char_traitsIcEERSt13basic_ostreamIcT_ES5_PKc(ptr noundef nonnull align 8 dereferenceable(8) %4, ptr noundef nonnull @.str.159)
  %6 = tail call noundef nonnull align 8 dereferenceable(8) ptr @_ZStlsISt11char_traitsIcEERSt13basic_ostreamIcT_ES5_PKc(ptr noundef nonnull align 8 dereferenceable(8) %5, ptr noundef nonnull @.str.160)
  br label %7

7:                                                ; preds = %3, %2
  tail call void @_ZNSt14basic_ofstreamIcSt11char_traitsIcEE5closeEv(ptr noundef nonnull align 8 dereferenceable(248) %0)
  ret void
}